target datalayout = "e-m:e-p270:32:32-p271:32:32-p272:64:64-i64:64-i128:128-f80:128-n8:16:32:64-S128"
target triple = "x86_64-pc-linux-gnu"

%struct.Vec_Int_t_ = type { i32, i32, ptr }
%struct.Ssw_Pars_t_ = type { i32, i32, i32, i32, i32, i32, i32, i32, i32, i32, i32, i32, i32, i32, i32, i32, i32, i32, i32, i32, i32, i32, i32, i32, i32, i32, i32, i32, i32, i32, i32, i32, i32, i32, i32, i32, i32, i32, i32, i32, i32, i32, ptr, ptr }
%struct.Ssw_Man_t_ = type { ptr, i32, ptr, ptr, ptr, ptr, i32, ptr, ptr, ptr, i32, i32, i32, i32, i32, i32, i32, i32, i32, i32, i32, ptr, i32, ptr, i32, i32, i32, i32, ptr, ptr, ptr, i32, ptr, i32, i32, ptr, ptr, ptr, i32, ptr, i32, i32, i32, i32, i32, i32, i32, i32, i32, i32, i32, i32, i32, i32, i32, i32, i32, i32, i32, i32, i32, i32, i64, i64, i64, i64, i64, i64, i64, i64, i64, i64 }

@.str.3 = private unnamed_addr constant [14 x i8] c"srm_part.blif\00", align 1
@.str.4 = private unnamed_addr constant [52 x i8] c"Speculatively reduced miter is saved in file \22%s\22.\0A\00", align 1
@.str.5 = private unnamed_addr constant [93 x i8] c"Dumping speculative miter is possible only for partial signal correspondence (switch \22-c\22).\0A\00", align 1

; Function Attrs: inlinehint nounwind uwtable
define internal void @Vec_IntFree(ptr noundef %0) #1 {
  %2 = alloca ptr, align 8
  store ptr %0, ptr %2, align 8, !tbaa !3
  %3 = load ptr, ptr %2, align 8, !tbaa !3
  %4 = getelementptr inbounds nuw %struct.Vec_Int_t_, ptr %3, i32 0, i32 2
  %5 = load ptr, ptr %4, align 8, !tbaa !19
  %6 = icmp ne ptr %5, null
  br i1 %6, label %7, label %13

7:                                                ; preds = %1
  %8 = load ptr, ptr %2, align 8, !tbaa !3
  %9 = getelementptr inbounds nuw %struct.Vec_Int_t_, ptr %8, i32 0, i32 2
  %10 = load ptr, ptr %9, align 8, !tbaa !19
  call void @free(ptr noundef %10) #9
  %11 = load ptr, ptr %2, align 8, !tbaa !3
  %12 = getelementptr inbounds nuw %struct.Vec_Int_t_, ptr %11, i32 0, i32 2
  store ptr null, ptr %12, align 8, !tbaa !19
  br label %14

13:                                               ; preds = %1
  br label %14

14:                                               ; preds = %13, %7
  %15 = load ptr, ptr %2, align 8, !tbaa !3
  %16 = icmp ne ptr %15, null
  br i1 %16, label %17, label %19

17:                                               ; preds = %14
  %18 = load ptr, ptr %2, align 8, !tbaa !3
  call void @free(ptr noundef %18) #9
  store ptr null, ptr %2, align 8, !tbaa !3
  br label %20

19:                                               ; preds = %14
  br label %20

20:                                               ; preds = %19, %17
  ret void
}

; Function Attrs: nounwind uwtable
define ptr @Ssw_SecWithSimilaritySweep(ptr noundef %0, ptr noundef %1, ptr noundef %2, ptr noundef %3) #0 {
  %5 = alloca ptr, align 8
  %6 = alloca ptr, align 8
  %7 = alloca ptr, align 8
  %8 = alloca ptr, align 8
  %9 = alloca ptr, align 8
  %10 = alloca ptr, align 8
  %11 = alloca ptr, align 8
  %12 = alloca ptr, align 8
  %13 = alloca ptr, align 8
  %14 = alloca ptr, align 8
  store ptr %0, ptr %5, align 8, !tbaa !20
  store ptr %1, ptr %6, align 8, !tbaa !20
  store ptr %2, ptr %7, align 8, !tbaa !3
  store ptr %3, ptr %8, align 8, !tbaa !68
  call void @llvm.lifetime.start.p0(i64 8, ptr %9) #9
  call void @llvm.lifetime.start.p0(i64 8, ptr %10) #9
  call void @llvm.lifetime.start.p0(i64 8, ptr %11) #9
  call void @llvm.lifetime.start.p0(i64 8, ptr %12) #9
  call void @llvm.lifetime.start.p0(i64 8, ptr %13) #9
  %15 = load ptr, ptr %5, align 8, !tbaa !20
  %16 = load ptr, ptr %6, align 8, !tbaa !20
  %17 = load ptr, ptr %7, align 8, !tbaa !3
  call void @Ssw_MatchingStart(ptr noundef %15, ptr noundef %16, ptr noundef %17)
  %18 = load ptr, ptr %8, align 8, !tbaa !68
  %19 = getelementptr inbounds nuw %struct.Ssw_Pars_t_, ptr %18, i32 0, i32 25
  %20 = load i32, ptr %19, align 4, !tbaa !70
  %21 = icmp ne i32 %20, 0
  br i1 %21, label %22, label %31

22:                                               ; preds = %4
  %23 = load ptr, ptr %5, align 8, !tbaa !20
  %24 = load ptr, ptr %6, align 8, !tbaa !20
  %25 = load ptr, ptr %8, align 8, !tbaa !68
  %26 = getelementptr inbounds nuw %struct.Ssw_Pars_t_, ptr %25, i32 0, i32 25
  %27 = load i32, ptr %26, align 4, !tbaa !70
  %28 = load ptr, ptr %8, align 8, !tbaa !68
  %29 = getelementptr inbounds nuw %struct.Ssw_Pars_t_, ptr %28, i32 0, i32 28
  %30 = load i32, ptr %29, align 8, !tbaa !72
  call void @Ssw_MatchingExtend(ptr noundef %23, ptr noundef %24, i32 noundef %27, i32 noundef %30)
  br label %31

31:                                               ; preds = %22, %4
  %32 = load ptr, ptr %5, align 8, !tbaa !20
  %33 = load ptr, ptr %6, align 8, !tbaa !20
  call void @Ssw_MatchingComplete(ptr noundef %32, ptr noundef %33)
  %34 = load ptr, ptr %6, align 8, !tbaa !20
  %35 = load ptr, ptr %5, align 8, !tbaa !20
  call void @Ssw_MatchingComplete(ptr noundef %34, ptr noundef %35)
  %36 = load ptr, ptr %5, align 8, !tbaa !20
  %37 = load ptr, ptr %6, align 8, !tbaa !20
  %38 = call ptr @Ssw_MatchingPairs(ptr noundef %36, ptr noundef %37)
  store ptr %38, ptr %10, align 8, !tbaa !3
  %39 = load ptr, ptr %5, align 8, !tbaa !20
  %40 = load ptr, ptr %6, align 8, !tbaa !20
  %41 = call ptr @Saig_ManCreateMiter(ptr noundef %39, ptr noundef %40, i32 noundef 0)
  store ptr %41, ptr %12, align 8, !tbaa !20
  %42 = load ptr, ptr %12, align 8, !tbaa !20
  %43 = load ptr, ptr %5, align 8, !tbaa !20
  %44 = load ptr, ptr %6, align 8, !tbaa !20
  %45 = load ptr, ptr %10, align 8, !tbaa !3
  %46 = call ptr @Ssw_MatchingMiter(ptr noundef %42, ptr noundef %43, ptr noundef %44, ptr noundef %45)
  store ptr %46, ptr %11, align 8, !tbaa !3
  %47 = load ptr, ptr %10, align 8, !tbaa !3
  call void @Vec_IntFree(ptr noundef %47)
  %48 = load ptr, ptr %12, align 8, !tbaa !20
  %49 = load ptr, ptr %8, align 8, !tbaa !68
  %50 = call ptr @Ssw_ManCreate(ptr noundef %48, ptr noundef %49)
  store ptr %50, ptr %9, align 8, !tbaa !73
  %51 = load ptr, ptr %9, align 8, !tbaa !73
  %52 = getelementptr inbounds nuw %struct.Ssw_Man_t_, ptr %51, i32 0, i32 0
  %53 = load ptr, ptr %52, align 8, !tbaa !75
  %54 = getelementptr inbounds nuw %struct.Ssw_Pars_t_, ptr %53, i32 0, i32 24
  %55 = load i32, ptr %54, align 8, !tbaa !80
  %56 = icmp ne i32 %55, 0
  br i1 %56, label %57, label %63

57:                                               ; preds = %31
  %58 = load ptr, ptr %12, align 8, !tbaa !20
  %59 = load ptr, ptr %11, align 8, !tbaa !3
  %60 = call ptr @Ssw_ClassesPreparePairsSimple(ptr noundef %58, ptr noundef %59)
  %61 = load ptr, ptr %9, align 8, !tbaa !73
  %62 = getelementptr inbounds nuw %struct.Ssw_Man_t_, ptr %61, i32 0, i32 5
  store ptr %60, ptr %62, align 8, !tbaa !81
  br label %86

63:                                               ; preds = %31
  %64 = load ptr, ptr %12, align 8, !tbaa !20
  %65 = load ptr, ptr %8, align 8, !tbaa !68
  %66 = getelementptr inbounds nuw %struct.Ssw_Pars_t_, ptr %65, i32 0, i32 3
  %67 = load i32, ptr %66, align 4, !tbaa !82
  %68 = load ptr, ptr %8, align 8, !tbaa !68
  %69 = getelementptr inbounds nuw %struct.Ssw_Pars_t_, ptr %68, i32 0, i32 18
  %70 = load i32, ptr %69, align 8, !tbaa !83
  %71 = load ptr, ptr %8, align 8, !tbaa !68
  %72 = getelementptr inbounds nuw %struct.Ssw_Pars_t_, ptr %71, i32 0, i32 19
  %73 = load i32, ptr %72, align 4, !tbaa !84
  %74 = load ptr, ptr %8, align 8, !tbaa !68
  %75 = getelementptr inbounds nuw %struct.Ssw_Pars_t_, ptr %74, i32 0, i32 20
  %76 = load i32, ptr %75, align 8, !tbaa !85
  %77 = load ptr, ptr %8, align 8, !tbaa !68
  %78 = getelementptr inbounds nuw %struct.Ssw_Pars_t_, ptr %77, i32 0, i32 7
  %79 = load i32, ptr %78, align 4, !tbaa !86
  %80 = load ptr, ptr %8, align 8, !tbaa !68
  %81 = getelementptr inbounds nuw %struct.Ssw_Pars_t_, ptr %80, i32 0, i32 28
  %82 = load i32, ptr %81, align 8, !tbaa !72
  %83 = call ptr @Ssw_ClassesPrepare(ptr noundef %64, i32 noundef %67, i32 noundef %70, i32 noundef %73, i32 noundef %76, i32 noundef %79, i32 noundef %82)
  %84 = load ptr, ptr %9, align 8, !tbaa !73
  %85 = getelementptr inbounds nuw %struct.Ssw_Man_t_, ptr %84, i32 0, i32 5
  store ptr %83, ptr %85, align 8, !tbaa !81
  br label %86

86:                                               ; preds = %63, %57
  %87 = load ptr, ptr %9, align 8, !tbaa !73
  %88 = getelementptr inbounds nuw %struct.Ssw_Man_t_, ptr %87, i32 0, i32 0
  %89 = load ptr, ptr %88, align 8, !tbaa !75
  %90 = getelementptr inbounds nuw %struct.Ssw_Pars_t_, ptr %89, i32 0, i32 12
  %91 = load i32, ptr %90, align 8, !tbaa !87
  %92 = icmp ne i32 %91, 0
  br i1 %92, label %93, label %107

93:                                               ; preds = %86
  %94 = load ptr, ptr %9, align 8, !tbaa !73
  %95 = getelementptr inbounds nuw %struct.Ssw_Man_t_, ptr %94, i32 0, i32 0
  %96 = load ptr, ptr %95, align 8, !tbaa !75
  %97 = getelementptr inbounds nuw %struct.Ssw_Pars_t_, ptr %96, i32 0, i32 24
  %98 = load i32, ptr %97, align 8, !tbaa !80
  %99 = icmp ne i32 %98, 0
  br i1 %99, label %100, label %105

100:                                              ; preds = %93
  call void @llvm.lifetime.start.p0(i64 8, ptr %14) #9
  %101 = load ptr, ptr %9, align 8, !tbaa !73
  %102 = call ptr @Ssw_SpeculativeReduction(ptr noundef %101)
  store ptr %102, ptr %14, align 8, !tbaa !20
  %103 = load ptr, ptr %14, align 8, !tbaa !20
  call void @Aig_ManDumpBlif(ptr noundef %103, ptr noundef @.str.3, ptr noundef null, ptr noundef null)
  %104 = load ptr, ptr %14, align 8, !tbaa !20
  call void @Aig_ManStop(ptr noundef %104)
  call void (i32, ptr, ...) @Abc_Print(i32 noundef 1, ptr noundef @.str.4, ptr noundef @.str.3)
  call void @llvm.lifetime.end.p0(i64 8, ptr %14) #9
  br label %106

105:                                              ; preds = %93
  call void (i32, ptr, ...) @Abc_Print(i32 noundef 1, ptr noundef @.str.5)
  br label %106

106:                                              ; preds = %105, %100
  br label %107

107:                                              ; preds = %106, %86
  %108 = load ptr, ptr %12, align 8, !tbaa !20
  %109 = load ptr, ptr %9, align 8, !tbaa !73
  %110 = getelementptr inbounds nuw %struct.Ssw_Man_t_, ptr %109, i32 0, i32 0
  %111 = load ptr, ptr %110, align 8, !tbaa !75
  %112 = getelementptr inbounds nuw %struct.Ssw_Pars_t_, ptr %111, i32 0, i32 4
  %113 = load i32, ptr %112, align 8, !tbaa !88
  %114 = add nsw i32 1, %113
  %115 = call ptr @Ssw_SmlStart(ptr noundef %108, i32 noundef 0, i32 noundef %114, i32 noundef 1)
  %116 = load ptr, ptr %9, align 8, !tbaa !73
  %117 = getelementptr inbounds nuw %struct.Ssw_Man_t_, ptr %116, i32 0, i32 32
  store ptr %115, ptr %117, align 8, !tbaa !89
  %118 = load ptr, ptr %9, align 8, !tbaa !73
  %119 = getelementptr inbounds nuw %struct.Ssw_Man_t_, ptr %118, i32 0, i32 5
  %120 = load ptr, ptr %119, align 8, !tbaa !81
  %121 = load ptr, ptr %9, align 8, !tbaa !73
  %122 = getelementptr inbounds nuw %struct.Ssw_Man_t_, ptr %121, i32 0, i32 32
  %123 = load ptr, ptr %122, align 8, !tbaa !89
  call void @Ssw_ClassesSetData(ptr noundef %120, ptr noundef %123, ptr noundef @Ssw_SmlObjHashWord, ptr noundef @Ssw_SmlObjIsConstWord, ptr noundef @Ssw_SmlObjsAreEqualWord)
  %124 = load ptr, ptr %9, align 8, !tbaa !73
  %125 = call ptr @Ssw_SignalCorrespondenceRefine(ptr noundef %124)
  store ptr %125, ptr %13, align 8, !tbaa !20
  %126 = load ptr, ptr %9, align 8, !tbaa !73
  call void @Ssw_ManStop(ptr noundef %126)
  %127 = load ptr, ptr %12, align 8, !tbaa !20
  call void @Aig_ManStop(ptr noundef %127)
  %128 = load ptr, ptr %11, align 8, !tbaa !3
  call void @Vec_IntFree(ptr noundef %128)
  %129 = load ptr, ptr %13, align 8, !tbaa !20
  call void @llvm.lifetime.end.p0(i64 8, ptr %13) #9
  call void @llvm.lifetime.end.p0(i64 8, ptr %12) #9
  call void @llvm.lifetime.end.p0(i64 8, ptr %11) #9
  call void @llvm.lifetime.end.p0(i64 8, ptr %10) #9
  call void @llvm.lifetime.end.p0(i64 8, ptr %9) #9
  ret ptr %129
}