; Function Attrs: nounwind uwtable
define ptr @Ssw_SecWithSimilaritySweep(ptr noundef %0, ptr noundef %1, ptr noundef readonly captures(none) %2, ptr noundef %3) local_unnamed_addr #1 {
  tail call void @Ssw_MatchingStart(ptr noundef %0, ptr noundef %1, ptr noundef %2)
  %5 = getelementptr inbounds nuw i8, ptr %3, i64 100
  %6 = load i32, ptr %5, align 4, !tbaa !65
  %.not = icmp eq i32 %6, 0
  br i1 %.not, label %10, label %7

7:                                                ; preds = %4
  %8 = getelementptr inbounds nuw i8, ptr %3, i64 112
  %9 = load i32, ptr %8, align 8, !tbaa !67
  tail call void @Ssw_MatchingExtend(ptr noundef %0, ptr noundef %1, i32 noundef %6, i32 noundef %9)
  br label %10

10:                                               ; preds = %7, %4
  tail call void @Ssw_MatchingComplete(ptr noundef %0, ptr noundef %1)
  tail call void @Ssw_MatchingComplete(ptr noundef %1, ptr noundef %0)
  %11 = tail call ptr @Ssw_MatchingPairs(ptr noundef %0, ptr poison)
  %12 = tail call ptr @Saig_ManCreateMiter(ptr noundef %0, ptr noundef %1, i32 noundef 0) #15
  %13 = tail call ptr @Ssw_MatchingMiter(ptr poison, ptr noundef %0, ptr noundef %1, ptr noundef %11)
  %14 = getelementptr inbounds nuw i8, ptr %11, i64 8
  %15 = load ptr, ptr %14, align 8, !tbaa !15
  %.not.i = icmp eq ptr %15, null
  br i1 %.not.i, label %Vec_IntFree.exit, label %16

16:                                               ; preds = %10
  tail call void @free(ptr noundef nonnull %15) #15
  br label %Vec_IntFree.exit

Vec_IntFree.exit:                                 ; preds = %10, %16
  tail call void @free(ptr noundef nonnull %11) #15
  %17 = tail call ptr @Ssw_ManCreate(ptr noundef %12, ptr noundef nonnull %3) #15
  %18 = load ptr, ptr %17, align 8, !tbaa !68
  %19 = getelementptr inbounds nuw i8, ptr %18, i64 96
  %20 = load i32, ptr %19, align 8, !tbaa !74
  %.not50 = icmp eq i32 %20, 0
  br i1 %.not50, label %23, label %21

21:                                               ; preds = %Vec_IntFree.exit
  %22 = tail call ptr @Ssw_ClassesPreparePairsSimple(ptr noundef %12, ptr noundef %13) #15
  br label %37

23:                                               ; preds = %Vec_IntFree.exit
  %24 = getelementptr inbounds nuw i8, ptr %3, i64 12
  %25 = load i32, ptr %24, align 4, !tbaa !75
  %26 = getelementptr inbounds nuw i8, ptr %3, i64 72
  %27 = load i32, ptr %26, align 8, !tbaa !76
  %28 = getelementptr inbounds nuw i8, ptr %3, i64 76
  %29 = load i32, ptr %28, align 4, !tbaa !77
  %30 = getelementptr inbounds nuw i8, ptr %3, i64 80
  %31 = load i32, ptr %30, align 8, !tbaa !78
  %32 = getelementptr inbounds nuw i8, ptr %3, i64 28
  %33 = load i32, ptr %32, align 4, !tbaa !79
  %34 = getelementptr inbounds nuw i8, ptr %3, i64 112
  %35 = load i32, ptr %34, align 8, !tbaa !67
  %36 = tail call ptr @Ssw_ClassesPrepare(ptr noundef %12, i32 noundef %25, i32 noundef %27, i32 noundef %29, i32 noundef %31, i32 noundef %33, i32 noundef %35) #15
  br label %37

37:                                               ; preds = %23, %21
  %.sink = phi ptr [ %36, %23 ], [ %22, %21 ]
  %38 = getelementptr inbounds nuw i8, ptr %17, i64 40
  store ptr %.sink, ptr %38, align 8, !tbaa !80
  %39 = load ptr, ptr %17, align 8, !tbaa !68
  %40 = getelementptr inbounds nuw i8, ptr %39, i64 48
  %41 = load i32, ptr %40, align 8, !tbaa !81
  %.not51 = icmp eq i32 %41, 0
  br i1 %.not51, label %48, label %42

42:                                               ; preds = %37
  %43 = getelementptr inbounds nuw i8, ptr %39, i64 96
  %44 = load i32, ptr %43, align 8, !tbaa !74
  %.not52 = icmp eq i32 %44, 0
  br i1 %.not52, label %47, label %45

45:                                               ; preds = %42
  %46 = tail call ptr @Ssw_SpeculativeReduction(ptr noundef nonnull %17) #15
  tail call void @Aig_ManDumpBlif(ptr noundef %46, ptr noundef nonnull @.str.3, ptr noundef null, ptr noundef null) #15
  tail call void @Aig_ManStop(ptr noundef %46) #15
  tail call void (i32, ptr, ...) @Abc_Print(i32 poison, ptr noundef nonnull @.str.4, ptr noundef nonnull @.str.3)
  br label %48

47:                                               ; preds = %42
  tail call void (i32, ptr, ...) @Abc_Print(i32 poison, ptr noundef nonnull @.str.5)
  br label %48

48:                                               ; preds = %45, %47, %37
  %49 = load ptr, ptr %17, align 8, !tbaa !68
  %50 = getelementptr inbounds nuw i8, ptr %49, i64 16
  %51 = load i32, ptr %50, align 8, !tbaa !82
  %52 = add nsw i32 %51, 1
  %53 = tail call ptr @Ssw_SmlStart(ptr noundef %12, i32 noundef 0, i32 noundef %52, i32 noundef 1) #15
  %54 = getelementptr inbounds nuw i8, ptr %17, i64 200
  store ptr %53, ptr %54, align 8, !tbaa !83
  %55 = load ptr, ptr %38, align 8, !tbaa !80
  tail call void @Ssw_ClassesSetData(ptr noundef %55, ptr noundef %53, ptr noundef nonnull @Ssw_SmlObjHashWord, ptr noundef nonnull @Ssw_SmlObjIsConstWord, ptr noundef nonnull @Ssw_SmlObjsAreEqualWord) #15
  %56 = tail call ptr @Ssw_SignalCorrespondenceRefine(ptr noundef nonnull %17) #15
  tail call void @Ssw_ManStop(ptr noundef nonnull %17) #15
  tail call void @Aig_ManStop(ptr noundef %12) #15
  %57 = getelementptr inbounds nuw i8, ptr %13, i64 8
  %58 = load ptr, ptr %57, align 8, !tbaa !15
  %.not.i53 = icmp eq ptr %58, null
  br i1 %.not.i53, label %Vec_IntFree.exit54, label %59

59:                                               ; preds = %48
  tail call void @free(ptr noundef nonnull %58) #15
  br label %Vec_IntFree.exit54

Vec_IntFree.exit54:                               ; preds = %48, %59
  tail call void @free(ptr noundef nonnull %13) #15
  ret ptr %56
}